target datalayout = "e-m:e-p270:32:32-p271:32:32-p272:64:64-i64:64-i128:128-f80:128-n8:16:32:64-S128"
target triple = "x86_64-pc-linux-gnu"

%struct.dh_gen_ctx = type { ptr, ptr, i32, i32, i64, i64, ptr, i64, i32, i32, i32, i32, i32, i32, ptr, ptr, ptr, ptr, i32 }
%struct.ossl_param_st = type { ptr, i32, ptr, i64, i64 }

@.str = private unnamed_addr constant [56 x i8] c"../openssl/providers/implementations/keymgmt/dh_kmgmt.c\00", align 1
@.str.1 = private unnamed_addr constant [20 x i8] c"safeprime-generator\00", align 1
@.str.2 = private unnamed_addr constant [7 x i8] c"gindex\00", align 1
@.str.3 = private unnamed_addr constant [9 x i8] c"pcounter\00", align 1
@.str.4 = private unnamed_addr constant [7 x i8] c"hindex\00", align 1
@.str.5 = private unnamed_addr constant [5 x i8] c"seed\00", align 1
@.str.6 = private unnamed_addr constant [6 x i8] c"qbits\00", align 1
@.str.7 = private unnamed_addr constant [7 x i8] c"digest\00", align 1
@.str.8 = private unnamed_addr constant [11 x i8] c"properties\00", align 1
@__func__.dhx_gen_set_params = private unnamed_addr constant [19 x i8] c"dhx_gen_set_params\00", align 1

; Function Attrs: nounwind uwtable
define internal i32 @dh_set_gen_seed(ptr noundef %0, ptr noundef %1, i64 noundef %2) #0 {
  %4 = alloca i32, align 4
  %5 = alloca ptr, align 8
  %6 = alloca ptr, align 8
  %7 = alloca i64, align 8
  store ptr %0, ptr %5, align 8, !tbaa !13
  store ptr %1, ptr %6, align 8, !tbaa !59
  store i64 %2, ptr %7, align 8, !tbaa !46
  %8 = load ptr, ptr %5, align 8, !tbaa !13
  %9 = getelementptr inbounds nuw %struct.dh_gen_ctx, ptr %8, i32 0, i32 6
  %10 = load ptr, ptr %9, align 8, !tbaa !28
  %11 = load ptr, ptr %5, align 8, !tbaa !13
  %12 = getelementptr inbounds nuw %struct.dh_gen_ctx, ptr %11, i32 0, i32 7
  %13 = load i64, ptr %12, align 8, !tbaa !29
  call void @CRYPTO_clear_free(ptr noundef %10, i64 noundef %13, ptr noundef @.str, i32 noundef 514)
  %14 = load ptr, ptr %5, align 8, !tbaa !13
  %15 = getelementptr inbounds nuw %struct.dh_gen_ctx, ptr %14, i32 0, i32 6
  store ptr null, ptr %15, align 8, !tbaa !28
  %16 = load ptr, ptr %5, align 8, !tbaa !13
  %17 = getelementptr inbounds nuw %struct.dh_gen_ctx, ptr %16, i32 0, i32 7
  store i64 0, ptr %17, align 8, !tbaa !29
  %18 = load ptr, ptr %6, align 8, !tbaa !59
  %19 = icmp ne ptr %18, null
  br i1 %19, label %20, label %38

20:                                               ; preds = %3
  %21 = load i64, ptr %7, align 8, !tbaa !46
  %22 = icmp ugt i64 %21, 0
  br i1 %22, label %23, label %38

23:                                               ; preds = %20
  %24 = load ptr, ptr %6, align 8, !tbaa !59
  %25 = load i64, ptr %7, align 8, !tbaa !46
  %26 = call noalias ptr @CRYPTO_memdup(ptr noundef %24, i64 noundef %25, ptr noundef @.str, i32 noundef 518)
  %27 = load ptr, ptr %5, align 8, !tbaa !13
  %28 = getelementptr inbounds nuw %struct.dh_gen_ctx, ptr %27, i32 0, i32 6
  store ptr %26, ptr %28, align 8, !tbaa !28
  %29 = load ptr, ptr %5, align 8, !tbaa !13
  %30 = getelementptr inbounds nuw %struct.dh_gen_ctx, ptr %29, i32 0, i32 6
  %31 = load ptr, ptr %30, align 8, !tbaa !28
  %32 = icmp eq ptr %31, null
  br i1 %32, label %33, label %34

33:                                               ; preds = %23
  store i32 0, ptr %4, align 4
  br label %39

34:                                               ; preds = %23
  %35 = load i64, ptr %7, align 8, !tbaa !46
  %36 = load ptr, ptr %5, align 8, !tbaa !13
  %37 = getelementptr inbounds nuw %struct.dh_gen_ctx, ptr %36, i32 0, i32 7
  store i64 %35, ptr %37, align 8, !tbaa !29
  br label %38

38:                                               ; preds = %34, %20, %3
  store i32 1, ptr %4, align 4
  br label %39

39:                                               ; preds = %38, %33
  %40 = load i32, ptr %4, align 4
  ret i32 %40
}

; Function Attrs: nounwind uwtable
define internal i32 @dhx_gen_set_params(ptr noundef %0, ptr noundef %1) #0 {
  %3 = alloca i32, align 4
  %4 = alloca ptr, align 8
  %5 = alloca ptr, align 8
  %6 = alloca ptr, align 8
  %7 = alloca ptr, align 8
  %8 = alloca i32, align 4
  store ptr %0, ptr %4, align 8, !tbaa !3
  store ptr %1, ptr %5, align 8, !tbaa !11
  call void @llvm.lifetime.start.p0(i64 8, ptr %6) #8
  %9 = load ptr, ptr %4, align 8, !tbaa !3
  store ptr %9, ptr %6, align 8, !tbaa !13
  call void @llvm.lifetime.start.p0(i64 8, ptr %7) #8
  %10 = load ptr, ptr %4, align 8, !tbaa !3
  %11 = load ptr, ptr %5, align 8, !tbaa !11
  %12 = call i32 @dh_gen_common_set_params(ptr noundef %10, ptr noundef %11)
  %13 = icmp ne i32 %12, 0
  br i1 %13, label %15, label %14

14:                                               ; preds = %2
  store i32 0, ptr %3, align 4
  store i32 1, ptr %8, align 4
  br label %144

15:                                               ; preds = %2
  %16 = load ptr, ptr %5, align 8, !tbaa !11
  %17 = call ptr @OSSL_PARAM_locate_const(ptr noundef %16, ptr noundef @.str.2)
  store ptr %17, ptr %7, align 8, !tbaa !11
  %18 = load ptr, ptr %7, align 8, !tbaa !11
  %19 = icmp ne ptr %18, null
  br i1 %19, label %20, label %27

20:                                               ; preds = %15
  %21 = load ptr, ptr %7, align 8, !tbaa !11
  %22 = load ptr, ptr %6, align 8, !tbaa !13
  %23 = getelementptr inbounds nuw %struct.dh_gen_ctx, ptr %22, i32 0, i32 8
  %24 = call i32 @OSSL_PARAM_get_int(ptr noundef %21, ptr noundef %23)
  %25 = icmp ne i32 %24, 0
  br i1 %25, label %27, label %26

26:                                               ; preds = %20
  store i32 0, ptr %3, align 4
  store i32 1, ptr %8, align 4
  br label %144

27:                                               ; preds = %20, %15
  %28 = load ptr, ptr %5, align 8, !tbaa !11
  %29 = call ptr @OSSL_PARAM_locate_const(ptr noundef %28, ptr noundef @.str.3)
  store ptr %29, ptr %7, align 8, !tbaa !11
  %30 = load ptr, ptr %7, align 8, !tbaa !11
  %31 = icmp ne ptr %30, null
  br i1 %31, label %32, label %39

32:                                               ; preds = %27
  %33 = load ptr, ptr %7, align 8, !tbaa !11
  %34 = load ptr, ptr %6, align 8, !tbaa !13
  %35 = getelementptr inbounds nuw %struct.dh_gen_ctx, ptr %34, i32 0, i32 11
  %36 = call i32 @OSSL_PARAM_get_int(ptr noundef %33, ptr noundef %35)
  %37 = icmp ne i32 %36, 0
  br i1 %37, label %39, label %38

38:                                               ; preds = %32
  store i32 0, ptr %3, align 4
  store i32 1, ptr %8, align 4
  br label %144

39:                                               ; preds = %32, %27
  %40 = load ptr, ptr %5, align 8, !tbaa !11
  %41 = call ptr @OSSL_PARAM_locate_const(ptr noundef %40, ptr noundef @.str.4)
  store ptr %41, ptr %7, align 8, !tbaa !11
  %42 = load ptr, ptr %7, align 8, !tbaa !11
  %43 = icmp ne ptr %42, null
  br i1 %43, label %44, label %51

44:                                               ; preds = %39
  %45 = load ptr, ptr %7, align 8, !tbaa !11
  %46 = load ptr, ptr %6, align 8, !tbaa !13
  %47 = getelementptr inbounds nuw %struct.dh_gen_ctx, ptr %46, i32 0, i32 12
  %48 = call i32 @OSSL_PARAM_get_int(ptr noundef %45, ptr noundef %47)
  %49 = icmp ne i32 %48, 0
  br i1 %49, label %51, label %50

50:                                               ; preds = %44
  store i32 0, ptr %3, align 4
  store i32 1, ptr %8, align 4
  br label %144

51:                                               ; preds = %44, %39
  %52 = load ptr, ptr %5, align 8, !tbaa !11
  %53 = call ptr @OSSL_PARAM_locate_const(ptr noundef %52, ptr noundef @.str.5)
  store ptr %53, ptr %7, align 8, !tbaa !11
  %54 = load ptr, ptr %7, align 8, !tbaa !11
  %55 = icmp ne ptr %54, null
  br i1 %55, label %56, label %72

56:                                               ; preds = %51
  %57 = load ptr, ptr %7, align 8, !tbaa !11
  %58 = getelementptr inbounds nuw %struct.ossl_param_st, ptr %57, i32 0, i32 1
  %59 = load i32, ptr %58, align 8, !tbaa !47
  %60 = icmp ne i32 %59, 5
  br i1 %60, label %71, label %61

61:                                               ; preds = %56
  %62 = load ptr, ptr %6, align 8, !tbaa !13
  %63 = load ptr, ptr %7, align 8, !tbaa !11
  %64 = getelementptr inbounds nuw %struct.ossl_param_st, ptr %63, i32 0, i32 2
  %65 = load ptr, ptr %64, align 8, !tbaa !51
  %66 = load ptr, ptr %7, align 8, !tbaa !11
  %67 = getelementptr inbounds nuw %struct.ossl_param_st, ptr %66, i32 0, i32 3
  %68 = load i64, ptr %67, align 8, !tbaa !49
  %69 = call i32 @dh_set_gen_seed(ptr noundef %62, ptr noundef %65, i64 noundef %68)
  %70 = icmp ne i32 %69, 0
  br i1 %70, label %72, label %71

71:                                               ; preds = %61, %56
  store i32 0, ptr %3, align 4
  store i32 1, ptr %8, align 4
  br label %144

72:                                               ; preds = %61, %51
  %73 = load ptr, ptr %5, align 8, !tbaa !11
  %74 = call ptr @OSSL_PARAM_locate_const(ptr noundef %73, ptr noundef @.str.6)
  store ptr %74, ptr %7, align 8, !tbaa !11
  %75 = icmp ne ptr %74, null
  br i1 %75, label %76, label %83

76:                                               ; preds = %72
  %77 = load ptr, ptr %7, align 8, !tbaa !11
  %78 = load ptr, ptr %6, align 8, !tbaa !13
  %79 = getelementptr inbounds nuw %struct.dh_gen_ctx, ptr %78, i32 0, i32 5
  %80 = call i32 @OSSL_PARAM_get_size_t(ptr noundef %77, ptr noundef %79)
  %81 = icmp ne i32 %80, 0
  br i1 %81, label %83, label %82

82:                                               ; preds = %76
  store i32 0, ptr %3, align 4
  store i32 1, ptr %8, align 4
  br label %144

83:                                               ; preds = %76, %72
  %84 = load ptr, ptr %5, align 8, !tbaa !11
  %85 = call ptr @OSSL_PARAM_locate_const(ptr noundef %84, ptr noundef @.str.7)
  store ptr %85, ptr %7, align 8, !tbaa !11
  %86 = load ptr, ptr %7, align 8, !tbaa !11
  %87 = icmp ne ptr %86, null
  br i1 %87, label %88, label %110

88:                                               ; preds = %83
  %89 = load ptr, ptr %7, align 8, !tbaa !11
  %90 = getelementptr inbounds nuw %struct.ossl_param_st, ptr %89, i32 0, i32 1
  %91 = load i32, ptr %90, align 8, !tbaa !47
  %92 = icmp ne i32 %91, 4
  br i1 %92, label %93, label %94

93:                                               ; preds = %88
  store i32 0, ptr %3, align 4
  store i32 1, ptr %8, align 4
  br label %144

94:                                               ; preds = %88
  %95 = load ptr, ptr %6, align 8, !tbaa !13
  %96 = getelementptr inbounds nuw %struct.dh_gen_ctx, ptr %95, i32 0, i32 14
  %97 = load ptr, ptr %96, align 8, !tbaa !33
  call void @CRYPTO_free(ptr noundef %97, ptr noundef @.str, i32 noundef 634)
  %98 = load ptr, ptr %7, align 8, !tbaa !11
  %99 = getelementptr inbounds nuw %struct.ossl_param_st, ptr %98, i32 0, i32 2
  %100 = load ptr, ptr %99, align 8, !tbaa !51
  %101 = call noalias ptr @CRYPTO_strdup(ptr noundef %100, ptr noundef @.str, i32 noundef 635)
  %102 = load ptr, ptr %6, align 8, !tbaa !13
  %103 = getelementptr inbounds nuw %struct.dh_gen_ctx, ptr %102, i32 0, i32 14
  store ptr %101, ptr %103, align 8, !tbaa !33
  %104 = load ptr, ptr %6, align 8, !tbaa !13
  %105 = getelementptr inbounds nuw %struct.dh_gen_ctx, ptr %104, i32 0, i32 14
  %106 = load ptr, ptr %105, align 8, !tbaa !33
  %107 = icmp eq ptr %106, null
  br i1 %107, label %108, label %109

108:                                              ; preds = %94
  store i32 0, ptr %3, align 4
  store i32 1, ptr %8, align 4
  br label %144

109:                                              ; preds = %94
  br label %110

110:                                              ; preds = %109, %83
  %111 = load ptr, ptr %5, align 8, !tbaa !11
  %112 = call ptr @OSSL_PARAM_locate_const(ptr noundef %111, ptr noundef @.str.8)
  store ptr %112, ptr %7, align 8, !tbaa !11
  %113 = load ptr, ptr %7, align 8, !tbaa !11
  %114 = icmp ne ptr %113, null
  br i1 %114, label %115, label %137

115:                                              ; preds = %110
  %116 = load ptr, ptr %7, align 8, !tbaa !11
  %117 = getelementptr inbounds nuw %struct.ossl_param_st, ptr %116, i32 0, i32 1
  %118 = load i32, ptr %117, align 8, !tbaa !47
  %119 = icmp ne i32 %118, 4
  br i1 %119, label %120, label %121

120:                                              ; preds = %115
  store i32 0, ptr %3, align 4
  store i32 1, ptr %8, align 4
  br label %144

121:                                              ; preds = %115
  %122 = load ptr, ptr %6, align 8, !tbaa !13
  %123 = getelementptr inbounds nuw %struct.dh_gen_ctx, ptr %122, i32 0, i32 15
  %124 = load ptr, ptr %123, align 8, !tbaa !34
  call void @CRYPTO_free(ptr noundef %124, ptr noundef @.str, i32 noundef 643)
  %125 = load ptr, ptr %7, align 8, !tbaa !11
  %126 = getelementptr inbounds nuw %struct.ossl_param_st, ptr %125, i32 0, i32 2
  %127 = load ptr, ptr %126, align 8, !tbaa !51
  %128 = call noalias ptr @CRYPTO_strdup(ptr noundef %127, ptr noundef @.str, i32 noundef 644)
  %129 = load ptr, ptr %6, align 8, !tbaa !13
  %130 = getelementptr inbounds nuw %struct.dh_gen_ctx, ptr %129, i32 0, i32 15
  store ptr %128, ptr %130, align 8, !tbaa !34
  %131 = load ptr, ptr %6, align 8, !tbaa !13
  %132 = getelementptr inbounds nuw %struct.dh_gen_ctx, ptr %131, i32 0, i32 15
  %133 = load ptr, ptr %132, align 8, !tbaa !34
  %134 = icmp eq ptr %133, null
  br i1 %134, label %135, label %136

135:                                              ; preds = %121
  store i32 0, ptr %3, align 4
  store i32 1, ptr %8, align 4
  br label %144

136:                                              ; preds = %121
  br label %137

137:                                              ; preds = %136, %110
  %138 = load ptr, ptr %5, align 8, !tbaa !11
  %139 = call ptr @OSSL_PARAM_locate_const(ptr noundef %138, ptr noundef @.str.1)
  store ptr %139, ptr %7, align 8, !tbaa !11
  %140 = load ptr, ptr %7, align 8, !tbaa !11
  %141 = icmp ne ptr %140, null
  br i1 %141, label %142, label %143

142:                                              ; preds = %137
  call void @ERR_new()
  call void @ERR_set_debug(ptr noundef @.str, i32 noundef 652, ptr noundef @__func__.dhx_gen_set_params)
  call void (i32, i32, ptr, ...) @ERR_set_error(i32 noundef 57, i32 noundef 524556, ptr noundef null)
  store i32 0, ptr %3, align 4
  store i32 1, ptr %8, align 4
  br label %144

143:                                              ; preds = %137
  store i32 1, ptr %3, align 4
  store i32 1, ptr %8, align 4
  br label %144

144:                                              ; preds = %143, %142, %135, %120, %108, %93, %82, %71, %50, %38, %26, %14
  call void @llvm.lifetime.end.p0(i64 8, ptr %7) #8
  call void @llvm.lifetime.end.p0(i64 8, ptr %6) #8
  %145 = load i32, ptr %3, align 4
  ret i32 %145
}