; Function Attrs: nounwind uwtable
define internal range(i32 0, 2) i32 @dhx_gen_set_params(ptr noundef %0, ptr noundef %1) #0 {
  %3 = tail call fastcc i32 @dh_gen_common_set_params(ptr noundef %0, ptr noundef %1)
  %.not = icmp eq i32 %3, 0
  br i1 %.not, label %dh_set_gen_seed.exit, label %4

4:                                                ; preds = %2
  %5 = tail call ptr @OSSL_PARAM_locate_const(ptr noundef %1, ptr noundef nonnull @.str.2) #8
  %.not47 = icmp eq ptr %5, null
  br i1 %.not47, label %9, label %6

6:                                                ; preds = %4
  %7 = getelementptr inbounds nuw i8, ptr %0, i64 56
  %8 = tail call i32 @OSSL_PARAM_get_int(ptr noundef nonnull %5, ptr noundef nonnull %7) #8
  %.not48 = icmp eq i32 %8, 0
  br i1 %.not48, label %dh_set_gen_seed.exit, label %9

9:                                                ; preds = %6, %4
  %10 = tail call ptr @OSSL_PARAM_locate_const(ptr noundef %1, ptr noundef nonnull @.str.3) #8
  %.not49 = icmp eq ptr %10, null
  br i1 %.not49, label %14, label %11

11:                                               ; preds = %9
  %12 = getelementptr inbounds nuw i8, ptr %0, i64 68
  %13 = tail call i32 @OSSL_PARAM_get_int(ptr noundef nonnull %10, ptr noundef nonnull %12) #8
  %.not50 = icmp eq i32 %13, 0
  br i1 %.not50, label %dh_set_gen_seed.exit, label %14

14:                                               ; preds = %11, %9
  %15 = tail call ptr @OSSL_PARAM_locate_const(ptr noundef %1, ptr noundef nonnull @.str.4) #8
  %.not51 = icmp eq ptr %15, null
  br i1 %.not51, label %19, label %16

16:                                               ; preds = %14
  %17 = getelementptr inbounds nuw i8, ptr %0, i64 72
  %18 = tail call i32 @OSSL_PARAM_get_int(ptr noundef nonnull %15, ptr noundef nonnull %17) #8
  %.not52 = icmp eq i32 %18, 0
  br i1 %.not52, label %dh_set_gen_seed.exit, label %19

19:                                               ; preds = %16, %14
  %20 = tail call ptr @OSSL_PARAM_locate_const(ptr noundef %1, ptr noundef nonnull @.str.5) #8
  %.not53 = icmp eq ptr %20, null
  br i1 %.not53, label %dh_set_gen_seed.exit.thread, label %21

21:                                               ; preds = %19
  %22 = getelementptr inbounds nuw i8, ptr %20, i64 8
  %23 = load i32, ptr %22, align 8, !tbaa !38
  %.not54 = icmp eq i32 %23, 5
  br i1 %.not54, label %24, label %dh_set_gen_seed.exit

24:                                               ; preds = %21
  %25 = getelementptr inbounds nuw i8, ptr %20, i64 16
  %26 = load ptr, ptr %25, align 8, !tbaa !42
  %27 = getelementptr inbounds nuw i8, ptr %20, i64 24
  %28 = load i64, ptr %27, align 8, !tbaa !40
  %29 = getelementptr inbounds nuw i8, ptr %0, i64 40
  %30 = load ptr, ptr %29, align 8, !tbaa !26
  %31 = getelementptr inbounds nuw i8, ptr %0, i64 48
  %32 = load i64, ptr %31, align 8, !tbaa !27
  tail call void @CRYPTO_clear_free(ptr noundef %30, i64 noundef %32, ptr noundef nonnull @.str, i32 noundef 514) #8
  %33 = icmp ne ptr %26, null
  %34 = icmp ne i64 %28, 0
  %or.cond.i = and i1 %33, %34
  tail call void @llvm.memset.p0.i64(ptr noundef nonnull align 8 dereferenceable(16) %29, i8 0, i64 16, i1 false)
  br i1 %or.cond.i, label %35, label %dh_set_gen_seed.exit.thread

35:                                               ; preds = %24
  %36 = tail call noalias ptr @CRYPTO_memdup(ptr noundef nonnull %26, i64 noundef %28, ptr noundef nonnull @.str, i32 noundef 518) #8
  store ptr %36, ptr %29, align 8, !tbaa !26
  %37 = icmp eq ptr %36, null
  br i1 %37, label %dh_set_gen_seed.exit, label %38

38:                                               ; preds = %35
  store i64 %28, ptr %31, align 8, !tbaa !27
  br label %dh_set_gen_seed.exit.thread

dh_set_gen_seed.exit.thread:                      ; preds = %24, %38, %19
  %39 = tail call ptr @OSSL_PARAM_locate_const(ptr noundef %1, ptr noundef nonnull @.str.6) #8
  %.not56 = icmp eq ptr %39, null
  br i1 %.not56, label %43, label %40

40:                                               ; preds = %dh_set_gen_seed.exit.thread
  %41 = getelementptr inbounds nuw i8, ptr %0, i64 32
  %42 = tail call i32 @OSSL_PARAM_get_size_t(ptr noundef nonnull %39, ptr noundef nonnull %41) #8
  %.not57 = icmp eq i32 %42, 0
  br i1 %.not57, label %dh_set_gen_seed.exit, label %43

43:                                               ; preds = %40, %dh_set_gen_seed.exit.thread
  %44 = tail call ptr @OSSL_PARAM_locate_const(ptr noundef %1, ptr noundef nonnull @.str.7) #8
  %.not58 = icmp eq ptr %44, null
  br i1 %.not58, label %55, label %45

45:                                               ; preds = %43
  %46 = getelementptr inbounds nuw i8, ptr %44, i64 8
  %47 = load i32, ptr %46, align 8, !tbaa !38
  %.not59 = icmp eq i32 %47, 4
  br i1 %.not59, label %48, label %dh_set_gen_seed.exit

48:                                               ; preds = %45
  %49 = getelementptr inbounds nuw i8, ptr %0, i64 80
  %50 = load ptr, ptr %49, align 8, !tbaa !16
  tail call void @CRYPTO_free(ptr noundef %50, ptr noundef nonnull @.str, i32 noundef 634) #8
  %51 = getelementptr inbounds nuw i8, ptr %44, i64 16
  %52 = load ptr, ptr %51, align 8, !tbaa !42
  %53 = tail call noalias ptr @CRYPTO_strdup(ptr noundef %52, ptr noundef nonnull @.str, i32 noundef 635) #8
  store ptr %53, ptr %49, align 8, !tbaa !16
  %54 = icmp eq ptr %53, null
  br i1 %54, label %dh_set_gen_seed.exit, label %55

55:                                               ; preds = %48, %43
  %56 = tail call ptr @OSSL_PARAM_locate_const(ptr noundef %1, ptr noundef nonnull @.str.8) #8
  %.not60 = icmp eq ptr %56, null
  br i1 %.not60, label %67, label %57

57:                                               ; preds = %55
  %58 = getelementptr inbounds nuw i8, ptr %56, i64 8
  %59 = load i32, ptr %58, align 8, !tbaa !38
  %.not61 = icmp eq i32 %59, 4
  br i1 %.not61, label %60, label %dh_set_gen_seed.exit

60:                                               ; preds = %57
  %61 = getelementptr inbounds nuw i8, ptr %0, i64 88
  %62 = load ptr, ptr %61, align 8, !tbaa !28
  tail call void @CRYPTO_free(ptr noundef %62, ptr noundef nonnull @.str, i32 noundef 643) #8
  %63 = getelementptr inbounds nuw i8, ptr %56, i64 16
  %64 = load ptr, ptr %63, align 8, !tbaa !42
  %65 = tail call noalias ptr @CRYPTO_strdup(ptr noundef %64, ptr noundef nonnull @.str, i32 noundef 644) #8
  store ptr %65, ptr %61, align 8, !tbaa !28
  %66 = icmp eq ptr %65, null
  br i1 %66, label %dh_set_gen_seed.exit, label %67

67:                                               ; preds = %60, %55
  %68 = tail call ptr @OSSL_PARAM_locate_const(ptr noundef %1, ptr noundef nonnull @.str.1) #8
  %.not62 = icmp eq ptr %68, null
  br i1 %.not62, label %dh_set_gen_seed.exit, label %69

69:                                               ; preds = %67
  tail call void @ERR_new() #8
  tail call void @ERR_set_debug(ptr noundef nonnull @.str, i32 noundef 652, ptr noundef nonnull @__func__.dhx_gen_set_params) #8
  tail call void (i32, i32, ptr, ...) @ERR_set_error(i32 noundef 57, i32 noundef 524556, ptr noundef null) #8
  br label %dh_set_gen_seed.exit

dh_set_gen_seed.exit:                             ; preds = %35, %67, %60, %57, %48, %45, %40, %21, %16, %11, %6, %2, %69
  %.0 = phi i32 [ 0, %69 ], [ 0, %2 ], [ 0, %6 ], [ 0, %11 ], [ 0, %16 ], [ 0, %21 ], [ 0, %40 ], [ 0, %45 ], [ 0, %48 ], [ 0, %57 ], [ 0, %60 ], [ 1, %67 ], [ 0, %35 ]
  ret i32 %.0
}